; Function Attrs: mustprogress uwtable
define hidden noundef zeroext i1 @_Z11pyopencv_toIcEbP7_objectRT_RK7ArgInfo(ptr noundef %0, ptr nocapture noundef nonnull writeonly align 1 dereferenceable(1) %1, ptr nocapture noundef nonnull readonly align 8 dereferenceable(12) %2) local_unnamed_addr #3 personality ptr @__gxx_personality_v0 {
  %4 = icmp eq ptr %0, null
  %5 = icmp eq ptr %0, @_Py_NoneStruct
  %or.cond = or i1 %4, %5
  br i1 %or.cond, label %38, label %6

6:                                                ; preds = %3
  %7 = load ptr, ptr @opencv_ARRAY_API, align 8
  %8 = getelementptr inbounds i8, ptr %7, i64 64
  %9 = load ptr, ptr %8, align 8
  %10 = getelementptr i8, ptr %0, i64 8
  %.val2.i = load ptr, ptr %10, align 8
  %.not.i.i = icmp eq ptr %.val2.i, %9
  br i1 %.not.i.i, label %_Z6isBoolP7_object.exit.thread, label %11

11:                                               ; preds = %6
  %12 = invoke i32 @PyType_IsSubtype(ptr noundef %.val2.i, ptr noundef %9)
          to label %_ZL19_PyObject_TypeCheckP7_objectP11_typeobject.exit.i unwind label %13

_ZL19_PyObject_TypeCheckP7_objectP11_typeobject.exit.i: ; preds = %11
  %.not4.i = icmp eq i32 %12, 0
  br i1 %.not4.i, label %_Z6isBoolP7_object.exit, label %_Z6isBoolP7_object.exit.thread

13:                                               ; preds = %11
  %14 = landingpad { ptr, i32 }
          catch ptr null
  %15 = extractvalue { ptr, i32 } %14, 0
  tail call void @__clang_call_terminate(ptr %15) #13
  unreachable

_Z6isBoolP7_object.exit:                          ; preds = %_ZL19_PyObject_TypeCheckP7_objectP11_typeobject.exit.i
  %.val.i = load ptr, ptr %10, align 8
  %16 = icmp eq ptr %.val.i, @PyBool_Type
  br i1 %16, label %_Z6isBoolP7_object.exit.thread, label %19

_Z6isBoolP7_object.exit.thread:                   ; preds = %6, %_ZL19_PyObject_TypeCheckP7_objectP11_typeobject.exit.i, %_Z6isBoolP7_object.exit
  %17 = load ptr, ptr %2, align 8
  %18 = tail call noundef i32 (ptr, ...) @_Z7failmsgPKcz(ptr noundef nonnull @.str.19, ptr noundef %17)
  br label %38

19:                                               ; preds = %_Z6isBoolP7_object.exit
  %20 = getelementptr i8, ptr %.val.i, i64 168
  %.val = load i64, ptr %20, align 8
  %21 = and i64 %.val, 16777216
  %.not = icmp eq i64 %21, 0
  %.pre17 = load ptr, ptr @opencv_ARRAY_API, align 8
  br i1 %.not, label %22, label %_ZL19_PyObject_TypeCheckP7_objectP11_typeobject.exit.thread

22:                                               ; preds = %19
  %23 = getelementptr inbounds i8, ptr %.pre17, i64 96
  %24 = load ptr, ptr %23, align 8
  %.not.i = icmp eq ptr %.val.i, %24
  br i1 %.not.i, label %_ZL19_PyObject_TypeCheckP7_objectP11_typeobject.exit.thread, label %_ZL19_PyObject_TypeCheckP7_objectP11_typeobject.exit

_ZL19_PyObject_TypeCheckP7_objectP11_typeobject.exit: ; preds = %22
  %25 = tail call i32 @PyType_IsSubtype(ptr noundef nonnull %.val.i, ptr noundef %24)
  %.not16 = icmp eq i32 %25, 0
  br i1 %.not16, label %32, label %_ZL19_PyObject_TypeCheckP7_objectP11_typeobject.exit._ZL19_PyObject_TypeCheckP7_objectP11_typeobject.exit.thread_crit_edge

_ZL19_PyObject_TypeCheckP7_objectP11_typeobject.exit._ZL19_PyObject_TypeCheckP7_objectP11_typeobject.exit.thread_crit_edge: ; preds = %_ZL19_PyObject_TypeCheckP7_objectP11_typeobject.exit
  %.pre = load ptr, ptr @opencv_ARRAY_API, align 8
  br label %_ZL19_PyObject_TypeCheckP7_objectP11_typeobject.exit.thread

_ZL19_PyObject_TypeCheckP7_objectP11_typeobject.exit.thread: ; preds = %_ZL19_PyObject_TypeCheckP7_objectP11_typeobject.exit._ZL19_PyObject_TypeCheckP7_objectP11_typeobject.exit.thread_crit_edge, %22, %19
  %26 = phi ptr [ %.pre, %_ZL19_PyObject_TypeCheckP7_objectP11_typeobject.exit._ZL19_PyObject_TypeCheckP7_objectP11_typeobject.exit.thread_crit_edge ], [ %.pre17, %22 ], [ %.pre17, %19 ]
  %27 = getelementptr inbounds i8, ptr %26, i64 800
  %28 = load ptr, ptr %27, align 8
  %29 = tail call noundef i32 %28(ptr noundef nonnull %0)
  %30 = trunc i32 %29 to i8
  store i8 %30, ptr %1, align 1
  %31 = icmp eq i8 %30, -1
  br i1 %31, label %35, label %38

32:                                               ; preds = %_ZL19_PyObject_TypeCheckP7_objectP11_typeobject.exit
  %33 = load ptr, ptr %2, align 8
  %34 = tail call noundef i32 (ptr, ...) @_Z7failmsgPKcz(ptr noundef nonnull @.str.17, ptr noundef %33)
  br label %38

35:                                               ; preds = %_ZL19_PyObject_TypeCheckP7_objectP11_typeobject.exit.thread
  %36 = tail call ptr @PyErr_Occurred()
  %37 = icmp eq ptr %36, null
  br label %38

38:                                               ; preds = %_ZL19_PyObject_TypeCheckP7_objectP11_typeobject.exit.thread, %35, %3, %32, %_Z6isBoolP7_object.exit.thread
  %.0 = phi i1 [ false, %_Z6isBoolP7_object.exit.thread ], [ false, %32 ], [ true, %3 ], [ true, %_ZL19_PyObject_TypeCheckP7_objectP11_typeobject.exit.thread ], [ %37, %35 ]
  ret i1 %.0
}